target datalayout = "e-m:e-p270:32:32-p271:32:32-p272:64:64-i64:64-i128:128-f80:128-n8:16:32:64-S128"
target triple = "x86_64-pc-linux-gnu"

%struct.PJ_LP = type { double, double }
%struct.PJ_XY = type { double, double }

; Function Attrs: mustprogress nounwind uwtable
define internal { double, double } @_ZL14eck4_s_forward5PJ_LPP8PJconsts(double %0, double %1, ptr noundef %2) #1 {
  %4 = alloca %struct.PJ_XY, align 8
  %5 = alloca %struct.PJ_LP, align 8
  %6 = alloca ptr, align 8
  %7 = alloca i32, align 4
  %8 = alloca double, align 8
  %9 = alloca double, align 8
  %10 = alloca double, align 8
  %11 = alloca i32, align 4
  %12 = alloca double, align 8
  %13 = alloca double, align 8
  %14 = alloca double, align 8
  %15 = alloca i32, align 4
  %16 = getelementptr inbounds nuw { double, double }, ptr %5, i32 0, i32 0
  store double %0, ptr %16, align 8
  %17 = getelementptr inbounds nuw { double, double }, ptr %5, i32 0, i32 1
  store double %1, ptr %17, align 8
  store ptr %2, ptr %6, align 8, !tbaa !3
  call void @llvm.memset.p0.i64(ptr align 8 %4, i8 0, i64 16, i1 false)
  call void @llvm.lifetime.start.p0(i64 4, ptr %7) #7
  call void @llvm.lifetime.start.p0(i64 8, ptr %8) #7
  %18 = getelementptr inbounds nuw %struct.PJ_LP, ptr %5, i32 0, i32 1
  %19 = load double, ptr %18, align 8, !tbaa !50
  %20 = call double @sin(double noundef %19) #7, !tbaa !52
  %21 = fmul double 0x400C90FDAA22168C, %20
  store double %21, ptr %8, align 8, !tbaa !46
  call void @llvm.lifetime.start.p0(i64 8, ptr %9) #7
  %22 = getelementptr inbounds nuw %struct.PJ_LP, ptr %5, i32 0, i32 1
  %23 = load double, ptr %22, align 8, !tbaa !50
  %24 = getelementptr inbounds nuw %struct.PJ_LP, ptr %5, i32 0, i32 1
  %25 = load double, ptr %24, align 8, !tbaa !50
  %26 = fmul double %23, %25
  store double %26, ptr %9, align 8, !tbaa !46
  call void @llvm.lifetime.start.p0(i64 8, ptr %10) #7
  %27 = getelementptr inbounds nuw %struct.PJ_LP, ptr %5, i32 0, i32 1
  %28 = load double, ptr %27, align 8, !tbaa !50
  %29 = load double, ptr %9, align 8, !tbaa !46
  %30 = load double, ptr %9, align 8, !tbaa !46
  %31 = call double @llvm.fmuladd.f64(double %30, double 8.268090e-03, double 2.188490e-02)
  %32 = call double @llvm.fmuladd.f64(double %29, double %31, double 0x3FECA5375C8D9F90)
  %33 = fmul double %28, %32
  store double %33, ptr %10, align 8, !tbaa !46
  call void @llvm.lifetime.start.p0(i64 4, ptr %11) #7
  store i32 6, ptr %11, align 4, !tbaa !52
  store i32 6, ptr %7, align 4, !tbaa !52
  br label %34

34:                                               ; preds = %69, %3
  %35 = load i32, ptr %7, align 4, !tbaa !52
  %36 = icmp ne i32 %35, 0
  br i1 %36, label %37, label %72

37:                                               ; preds = %34
  call void @llvm.lifetime.start.p0(i64 8, ptr %12) #7
  %38 = load double, ptr %10, align 8, !tbaa !46
  %39 = call double @cos(double noundef %38) #7, !tbaa !52
  store double %39, ptr %12, align 8, !tbaa !46
  call void @llvm.lifetime.start.p0(i64 8, ptr %13) #7
  %40 = load double, ptr %10, align 8, !tbaa !46
  %41 = call double @sin(double noundef %40) #7, !tbaa !52
  store double %41, ptr %13, align 8, !tbaa !46
  %42 = load double, ptr %10, align 8, !tbaa !46
  %43 = load double, ptr %13, align 8, !tbaa !46
  %44 = load double, ptr %12, align 8, !tbaa !46
  %45 = fadd double %44, 2.000000e+00
  %46 = call double @llvm.fmuladd.f64(double %43, double %45, double %42)
  %47 = load double, ptr %8, align 8, !tbaa !46
  %48 = fsub double %46, %47
  %49 = load double, ptr %12, align 8, !tbaa !46
  %50 = load double, ptr %12, align 8, !tbaa !46
  %51 = fadd double %50, 2.000000e+00
  %52 = call double @llvm.fmuladd.f64(double %49, double %51, double 1.000000e+00)
  %53 = load double, ptr %13, align 8, !tbaa !46
  %54 = load double, ptr %13, align 8, !tbaa !46
  %55 = fneg double %53
  %56 = call double @llvm.fmuladd.f64(double %55, double %54, double %52)
  %57 = fdiv double %48, %56
  store double %57, ptr %9, align 8, !tbaa !46
  %58 = load double, ptr %9, align 8, !tbaa !46
  %59 = load double, ptr %10, align 8, !tbaa !46
  %60 = fsub double %59, %58
  store double %60, ptr %10, align 8, !tbaa !46
  call void @llvm.lifetime.start.p0(i64 8, ptr %14) #7
  store double 0x3E7AD7F29ABCAF48, ptr %14, align 8, !tbaa !46
  %61 = load double, ptr %9, align 8, !tbaa !46
  %62 = call double @llvm.fabs.f64(double %61)
  %63 = fcmp olt double %62, 0x3E7AD7F29ABCAF48
  br i1 %63, label %64, label %65

64:                                               ; preds = %37
  store i32 2, ptr %15, align 4
  br label %66

65:                                               ; preds = %37
  store i32 0, ptr %15, align 4
  br label %66

66:                                               ; preds = %65, %64
  call void @llvm.lifetime.end.p0(i64 8, ptr %14) #7
  call void @llvm.lifetime.end.p0(i64 8, ptr %13) #7
  call void @llvm.lifetime.end.p0(i64 8, ptr %12) #7
  %67 = load i32, ptr %15, align 4
  switch i32 %67, label %99 [
    i32 0, label %68
    i32 2, label %72
  ]

68:                                               ; preds = %66
  br label %69

69:                                               ; preds = %68
  %70 = load i32, ptr %7, align 4, !tbaa !52
  %71 = add nsw i32 %70, -1
  store i32 %71, ptr %7, align 4, !tbaa !52
  br label %34, !llvm.loop !54

72:                                               ; preds = %66, %34
  %73 = load i32, ptr %7, align 4, !tbaa !52
  %74 = icmp ne i32 %73, 0
  br i1 %74, label %84, label %75

75:                                               ; preds = %72
  %76 = getelementptr inbounds nuw %struct.PJ_LP, ptr %5, i32 0, i32 0
  %77 = load double, ptr %76, align 8, !tbaa !48
  %78 = fmul double 0x3FDB05F35F5E99C0, %77
  %79 = getelementptr inbounds nuw %struct.PJ_XY, ptr %4, i32 0, i32 0
  store double %78, ptr %79, align 8, !tbaa !47
  %80 = load double, ptr %10, align 8, !tbaa !46
  %81 = fcmp olt double %80, 0.000000e+00
  %82 = select i1 %81, double 0xBFF539588352674F, double 0x3FF539588352674F
  %83 = getelementptr inbounds nuw %struct.PJ_XY, ptr %4, i32 0, i32 1
  store double %82, ptr %83, align 8, !tbaa !44
  br label %97

84:                                               ; preds = %72
  %85 = getelementptr inbounds nuw %struct.PJ_LP, ptr %5, i32 0, i32 0
  %86 = load double, ptr %85, align 8, !tbaa !48
  %87 = fmul double 0x3FDB05F35F5E99C0, %86
  %88 = load double, ptr %10, align 8, !tbaa !46
  %89 = call double @cos(double noundef %88) #7, !tbaa !52
  %90 = fadd double 1.000000e+00, %89
  %91 = fmul double %87, %90
  %92 = getelementptr inbounds nuw %struct.PJ_XY, ptr %4, i32 0, i32 0
  store double %91, ptr %92, align 8, !tbaa !47
  %93 = load double, ptr %10, align 8, !tbaa !46
  %94 = call double @sin(double noundef %93) #7, !tbaa !52
  %95 = fmul double 0x3FF539588352674F, %94
  %96 = getelementptr inbounds nuw %struct.PJ_XY, ptr %4, i32 0, i32 1
  store double %95, ptr %96, align 8, !tbaa !44
  br label %97

97:                                               ; preds = %84, %75
  store i32 1, ptr %15, align 4
  call void @llvm.lifetime.end.p0(i64 4, ptr %11) #7
  call void @llvm.lifetime.end.p0(i64 8, ptr %10) #7
  call void @llvm.lifetime.end.p0(i64 8, ptr %9) #7
  call void @llvm.lifetime.end.p0(i64 8, ptr %8) #7
  call void @llvm.lifetime.end.p0(i64 4, ptr %7) #7
  %98 = load { double, double }, ptr %4, align 8
  ret { double, double } %98

99:                                               ; preds = %66
  unreachable
}