; Function Attrs: mustprogress nofree nounwind memory(write) uwtable
define internal { double, double } @_ZL14eck4_s_forward5PJ_LPP8PJconsts(double %0, double %1, ptr readnone captures(none) %2) #3 {
  %4 = tail call double @sin(double noundef %1) #6, !tbaa !44
  %5 = fmul double %4, 0x400C90FDAA22168C
  %6 = fmul double %1, %1
  %7 = tail call double @llvm.fmuladd.f64(double %6, double 8.268090e-03, double 2.188490e-02)
  %8 = tail call double @llvm.fmuladd.f64(double %6, double %7, double 0x3FECA5375C8D9F90)
  %9 = fmul double %1, %8
  br label %12

10:                                               ; preds = %12
  %11 = add nsw i32 %.02632, -1
  %.not = icmp eq i32 %11, 0
  br i1 %.not, label %25, label %12, !llvm.loop !46

12:                                               ; preds = %3, %10
  %.02632 = phi i32 [ 6, %3 ], [ %11, %10 ]
  %.02731 = phi double [ %9, %3 ], [ %22, %10 ]
  %13 = tail call double @cos(double noundef %.02731) #6, !tbaa !44
  %14 = tail call double @sin(double noundef %.02731) #6, !tbaa !44
  %15 = fadd double %13, 2.000000e+00
  %16 = tail call double @llvm.fmuladd.f64(double %14, double %15, double %.02731)
  %17 = fsub double %16, %5
  %18 = tail call double @llvm.fmuladd.f64(double %13, double %15, double 1.000000e+00)
  %19 = fneg double %14
  %20 = tail call double @llvm.fmuladd.f64(double %19, double %14, double %18)
  %21 = fdiv double %17, %20
  %22 = fsub double %.02731, %21
  %23 = tail call double @llvm.fabs.f64(double %21)
  %24 = fcmp olt double %23, 0x3E7AD7F29ABCAF48
  br i1 %24, label %29, label %10

25:                                               ; preds = %10
  %26 = fmul double %0, 0x3FDB05F35F5E99C0
  %27 = fcmp olt double %22, 0.000000e+00
  %28 = select i1 %27, double 0xBFF539588352674F, double 0x3FF539588352674F
  br label %36

29:                                               ; preds = %12
  %30 = fmul double %0, 0x3FDB05F35F5E99C0
  %31 = tail call double @cos(double noundef %22) #6, !tbaa !44
  %32 = fadd double %31, 1.000000e+00
  %33 = fmul double %30, %32
  %34 = tail call double @sin(double noundef %22) #6, !tbaa !44
  %35 = fmul double %34, 0x3FF539588352674F
  br label %36

36:                                               ; preds = %29, %25
  %.sroa.4.0 = phi double [ %35, %29 ], [ %28, %25 ]
  %.sroa.025.0 = phi double [ %33, %29 ], [ %26, %25 ]
  %.fca.0.insert = insertvalue { double, double } poison, double %.sroa.025.0, 0
  %.fca.1.insert = insertvalue { double, double } %.fca.0.insert, double %.sroa.4.0, 1
  ret { double, double } %.fca.1.insert
}